; Function Attrs: nounwind uwtable
define internal void @VULKAN_SetBlendConstants(ptr noundef initializes((344, 360)) %0, <2 x float> %1, <2 x float> %2) #8 {
  %4 = getelementptr inbounds nuw i8, ptr %0, i64 128
  %5 = load ptr, ptr %4, align 8
  %.sroa.0.0.vec.extract.i = extractelement <2 x float> %1, i64 0
  %6 = getelementptr inbounds nuw i8, ptr %0, i64 344
  store float %.sroa.0.0.vec.extract.i, ptr %6, align 8
  %.sroa.0.4.vec.extract.i = extractelement <2 x float> %1, i64 1
  %7 = getelementptr inbounds nuw i8, ptr %0, i64 348
  store float %.sroa.0.4.vec.extract.i, ptr %7, align 4
  %.sroa.3.8.vec.extract.i = extractelement <2 x float> %2, i64 0
  %8 = getelementptr inbounds nuw i8, ptr %0, i64 352
  store float %.sroa.3.8.vec.extract.i, ptr %8, align 8
  %.sroa.3.12.vec.extract.i = extractelement <2 x float> %2, i64 1
  %9 = getelementptr inbounds nuw i8, ptr %0, i64 356
  store float %.sroa.3.12.vec.extract.i, ptr %9, align 4
  %10 = getelementptr inbounds nuw i8, ptr %5, i64 2968
  %11 = load ptr, ptr %10, align 8
  %12 = getelementptr inbounds nuw i8, ptr %0, i64 136
  %13 = load ptr, ptr %12, align 8
  tail call void %11(ptr noundef %13, ptr noundef nonnull %6) #13
  ret void
}